target datalayout = "e-m:e-p270:32:32-p271:32:32-p272:64:64-i64:64-i128:128-f80:128-n8:16:32:64-S128"
target triple = "x86_64-pc-linux-gnu"

%"class.icu_77::NFRule" = type { i64, i32, i16, i16, %"class.icu_77::UnicodeString", ptr, ptr, ptr, ptr }
%"class.icu_77::UnicodeString" = type { %"class.icu_77::Replaceable", %"union.icu_77::UnicodeString::StackBufferOrFields" }
%"class.icu_77::Replaceable" = type { %"class.icu_77::UObject" }
%"class.icu_77::UObject" = type { ptr }
%"union.icu_77::UnicodeString::StackBufferOrFields" = type { %struct.anon.0, [32 x i8] }
%struct.anon.0 = type { i16, i32, i32, ptr }

; Function Attrs: mustprogress nounwind uwtable
define void @_ZN6icu_776NFRuleD2Ev(ptr noundef nonnull align 8 dereferenceable(112) %0) unnamed_addr #4 align 2 {
  %2 = alloca ptr, align 8
  store ptr %0, ptr %2, align 8, !tbaa !3
  %3 = load ptr, ptr %2, align 8
  %4 = getelementptr inbounds nuw %"class.icu_77::NFRule", ptr %3, i32 0, i32 5
  %5 = load ptr, ptr %4, align 8, !tbaa !27
  %6 = getelementptr inbounds nuw %"class.icu_77::NFRule", ptr %3, i32 0, i32 6
  %7 = load ptr, ptr %6, align 8, !tbaa !28
  %8 = icmp ne ptr %5, %7
  br i1 %8, label %9, label %19

9:                                                ; preds = %1
  %10 = getelementptr inbounds nuw %"class.icu_77::NFRule", ptr %3, i32 0, i32 6
  %11 = load ptr, ptr %10, align 8, !tbaa !28
  %12 = icmp eq ptr %11, null
  br i1 %12, label %17, label %13

13:                                               ; preds = %9
  %14 = load ptr, ptr %11, align 8, !tbaa !42
  %15 = getelementptr inbounds ptr, ptr %14, i64 1
  %16 = load ptr, ptr %15, align 8
  call void %16(ptr noundef nonnull align 8 dereferenceable(32) %11) #9
  br label %17

17:                                               ; preds = %13, %9
  %18 = getelementptr inbounds nuw %"class.icu_77::NFRule", ptr %3, i32 0, i32 6
  store ptr null, ptr %18, align 8, !tbaa !28
  br label %19

19:                                               ; preds = %17, %1
  %20 = getelementptr inbounds nuw %"class.icu_77::NFRule", ptr %3, i32 0, i32 5
  %21 = load ptr, ptr %20, align 8, !tbaa !27
  %22 = icmp eq ptr %21, null
  br i1 %22, label %27, label %23

23:                                               ; preds = %19
  %24 = load ptr, ptr %21, align 8, !tbaa !42
  %25 = getelementptr inbounds ptr, ptr %24, i64 1
  %26 = load ptr, ptr %25, align 8
  call void %26(ptr noundef nonnull align 8 dereferenceable(32) %21) #9
  br label %27

27:                                               ; preds = %23, %19
  %28 = getelementptr inbounds nuw %"class.icu_77::NFRule", ptr %3, i32 0, i32 5
  store ptr null, ptr %28, align 8, !tbaa !27
  %29 = getelementptr inbounds nuw %"class.icu_77::NFRule", ptr %3, i32 0, i32 8
  %30 = load ptr, ptr %29, align 8, !tbaa !30
  %31 = icmp eq ptr %30, null
  br i1 %31, label %36, label %32

32:                                               ; preds = %27
  %33 = load ptr, ptr %30, align 8, !tbaa !42
  %34 = getelementptr inbounds ptr, ptr %33, i64 1
  %35 = load ptr, ptr %34, align 8
  call void %35(ptr noundef nonnull align 8 dereferenceable(408) %30) #9
  br label %36

36:                                               ; preds = %32, %27
  %37 = getelementptr inbounds nuw %"class.icu_77::NFRule", ptr %3, i32 0, i32 8
  store ptr null, ptr %37, align 8, !tbaa !30
  %38 = getelementptr inbounds nuw %"class.icu_77::NFRule", ptr %3, i32 0, i32 4
  call void @_ZN6icu_7713UnicodeStringD1Ev(ptr noundef nonnull align 8 dereferenceable(64) %38) #9
  ret void
}