; Function Attrs: mustprogress nounwind uwtable
define void @_ZN6icu_776NFRuleD2Ev(ptr noundef nonnull align 8 dereferenceable(112) %0) unnamed_addr #3 align 2 {
  %2 = getelementptr inbounds nuw i8, ptr %0, i64 80
  %3 = load ptr, ptr %2, align 8, !tbaa !38
  %4 = getelementptr inbounds nuw i8, ptr %0, i64 88
  %5 = load ptr, ptr %4, align 8, !tbaa !39
  %.not = icmp eq ptr %3, %5
  br i1 %.not, label %13, label %6

6:                                                ; preds = %1
  %7 = icmp eq ptr %5, null
  br i1 %7, label %12, label %8

8:                                                ; preds = %6
  %9 = load ptr, ptr %5, align 8, !tbaa !24
  %10 = getelementptr inbounds nuw i8, ptr %9, i64 8
  %11 = load ptr, ptr %10, align 8
  tail call void %11(ptr noundef nonnull align 8 dereferenceable(32) %5) #9
  %.pr.pre = load ptr, ptr %2, align 8, !tbaa !38
  br label %12

12:                                               ; preds = %8, %6
  %.pr = phi ptr [ %.pr.pre, %8 ], [ %3, %6 ]
  store ptr null, ptr %4, align 8, !tbaa !39
  br label %13

13:                                               ; preds = %12, %1
  %14 = phi ptr [ %.pr, %12 ], [ %3, %1 ]
  %15 = icmp eq ptr %14, null
  br i1 %15, label %20, label %16

16:                                               ; preds = %13
  %17 = load ptr, ptr %14, align 8, !tbaa !24
  %18 = getelementptr inbounds nuw i8, ptr %17, i64 8
  %19 = load ptr, ptr %18, align 8
  tail call void %19(ptr noundef nonnull align 8 dereferenceable(32) %14) #9
  br label %20

20:                                               ; preds = %16, %13
  store ptr null, ptr %2, align 8, !tbaa !38
  %21 = getelementptr inbounds nuw i8, ptr %0, i64 104
  %22 = load ptr, ptr %21, align 8, !tbaa !22
  %23 = icmp eq ptr %22, null
  br i1 %23, label %28, label %24

24:                                               ; preds = %20
  %25 = load ptr, ptr %22, align 8, !tbaa !24
  %26 = getelementptr inbounds nuw i8, ptr %25, i64 8
  %27 = load ptr, ptr %26, align 8
  tail call void %27(ptr noundef nonnull align 8 dereferenceable(408) %22) #9
  br label %28

28:                                               ; preds = %24, %20
  store ptr null, ptr %21, align 8, !tbaa !22
  %29 = getelementptr inbounds nuw i8, ptr %0, i64 16
  tail call void @_ZN6icu_7713UnicodeStringD1Ev(ptr noundef nonnull align 8 dereferenceable(64) %29) #9
  ret void
}